target datalayout = "e-m:e-p270:32:32-p271:32:32-p272:64:64-i64:64-i128:128-f80:128-n8:16:32:64-S128"
target triple = "x86_64-pc-linux-gnu"

%struct.hashfile = type { i32, i32, i32, %union.git_hash_ctx, i64, ptr, ptr, i32, i32, i64, ptr, ptr, ptr, i32 }
%union.git_hash_ctx = type { %struct.SHA1_CTX }
%struct.SHA1_CTX = type { i64, [5 x i32], [64 x i8], i32, i32, i32, i32, i32, ptr, [5 x i32], [5 x i32], [80 x i32], [80 x i32], [80 x [5 x i32]] }
%struct.git_hash_algo = type { ptr, i32, i64, i64, i64, ptr, ptr, ptr, ptr, ptr, ptr, ptr, ptr, ptr }

@.str = private unnamed_addr constant [29 x i8] c"%s: sha1 file error on close\00", align 1
@.str.1 = private unnamed_addr constant [45 x i8] c"%s: error when reading the tail of sha1 file\00", align 1
@.str.2 = private unnamed_addr constant [35 x i8] c"%s: sha1 file has trailing garbage\00", align 1

; Function Attrs: nounwind uwtable
define dso_local void @free_hashfile(ptr noundef %0) #0 {
  %2 = alloca ptr, align 8
  store ptr %0, ptr %2, align 8, !tbaa !4
  %3 = load ptr, ptr %2, align 8, !tbaa !4
  %4 = getelementptr inbounds nuw %struct.hashfile, ptr %3, i32 0, i32 10
  %5 = load ptr, ptr %4, align 8, !tbaa !22
  call void @free(ptr noundef %5) #10
  %6 = load ptr, ptr %2, align 8, !tbaa !4
  %7 = getelementptr inbounds nuw %struct.hashfile, ptr %6, i32 0, i32 11
  %8 = load ptr, ptr %7, align 8, !tbaa !29
  call void @free(ptr noundef %8) #10
  %9 = load ptr, ptr %2, align 8, !tbaa !4
  call void @free(ptr noundef %9) #10
  ret void
}

; Function Attrs: inlinehint nounwind uwtable
define internal void @hashcpy(ptr noundef %0, ptr noundef %1, ptr noundef %2) #3 {
  %4 = alloca ptr, align 8
  %5 = alloca ptr, align 8
  %6 = alloca ptr, align 8
  store ptr %0, ptr %4, align 8, !tbaa !30
  store ptr %1, ptr %5, align 8, !tbaa !30
  store ptr %2, ptr %6, align 8, !tbaa !33
  %7 = load ptr, ptr %4, align 8, !tbaa !30
  %8 = load ptr, ptr %5, align 8, !tbaa !30
  %9 = load ptr, ptr %6, align 8, !tbaa !33
  %10 = getelementptr inbounds nuw %struct.git_hash_algo, ptr %9, i32 0, i32 2
  %11 = load i64, ptr %10, align 8, !tbaa !32
  call void @llvm.memcpy.p0.p0.i64(ptr align 1 %7, ptr align 1 %8, i64 %11, i1 false)
  ret void
}

; Function Attrs: inlinehint nounwind uwtable
define internal void @hashclr(ptr noundef %0, ptr noundef %1) #3 {
  %3 = alloca ptr, align 8
  %4 = alloca ptr, align 8
  store ptr %0, ptr %3, align 8, !tbaa !30
  store ptr %1, ptr %4, align 8, !tbaa !33
  %5 = load ptr, ptr %3, align 8, !tbaa !30
  %6 = load ptr, ptr %4, align 8, !tbaa !33
  %7 = getelementptr inbounds nuw %struct.git_hash_algo, ptr %6, i32 0, i32 2
  %8 = load i64, ptr %7, align 8, !tbaa !32
  call void @llvm.memset.p0.i64(ptr align 1 %5, i8 0, i64 %8, i1 false)
  ret void
}

; Function Attrs: nounwind uwtable
define dso_local void @hashflush(ptr noundef %0) #0 {
  %2 = alloca ptr, align 8
  %3 = alloca i32, align 4
  store ptr %0, ptr %2, align 8, !tbaa !4
  call void @llvm.lifetime.start.p0(i64 4, ptr %3) #10
  %4 = load ptr, ptr %2, align 8, !tbaa !4
  %5 = getelementptr inbounds nuw %struct.hashfile, ptr %4, i32 0, i32 2
  %6 = load i32, ptr %5, align 8, !tbaa !9
  store i32 %6, ptr %3, align 4, !tbaa !16
  %7 = load i32, ptr %3, align 4, !tbaa !16
  %8 = icmp ne i32 %7, 0
  br i1 %8, label %9, label %35

9:                                                ; preds = %1
  %10 = load ptr, ptr %2, align 8, !tbaa !4
  %11 = getelementptr inbounds nuw %struct.hashfile, ptr %10, i32 0, i32 13
  %12 = load i32, ptr %11, align 8, !tbaa !17
  %13 = icmp ne i32 %12, 0
  br i1 %13, label %27, label %14

14:                                               ; preds = %9
  %15 = load ptr, ptr %2, align 8, !tbaa !4
  %16 = getelementptr inbounds nuw %struct.hashfile, ptr %15, i32 0, i32 12
  %17 = load ptr, ptr %16, align 8, !tbaa !18
  %18 = getelementptr inbounds nuw %struct.git_hash_algo, ptr %17, i32 0, i32 7
  %19 = load ptr, ptr %18, align 8, !tbaa !19
  %20 = load ptr, ptr %2, align 8, !tbaa !4
  %21 = getelementptr inbounds nuw %struct.hashfile, ptr %20, i32 0, i32 3
  %22 = load ptr, ptr %2, align 8, !tbaa !4
  %23 = getelementptr inbounds nuw %struct.hashfile, ptr %22, i32 0, i32 10
  %24 = load ptr, ptr %23, align 8, !tbaa !22
  %25 = load i32, ptr %3, align 4, !tbaa !16
  %26 = zext i32 %25 to i64
  call void %19(ptr noundef %21, ptr noundef %24, i64 noundef %26)
  br label %27

27:                                               ; preds = %14, %9
  %28 = load ptr, ptr %2, align 8, !tbaa !4
  %29 = load ptr, ptr %2, align 8, !tbaa !4
  %30 = getelementptr inbounds nuw %struct.hashfile, ptr %29, i32 0, i32 10
  %31 = load ptr, ptr %30, align 8, !tbaa !22
  %32 = load i32, ptr %3, align 4, !tbaa !16
  call void @flush(ptr noundef %28, ptr noundef %31, i32 noundef %32)
  %33 = load ptr, ptr %2, align 8, !tbaa !4
  %34 = getelementptr inbounds nuw %struct.hashfile, ptr %33, i32 0, i32 2
  store i32 0, ptr %34, align 8, !tbaa !9
  br label %35

35:                                               ; preds = %27, %1
  call void @llvm.lifetime.end.p0(i64 4, ptr %3) #10
  ret void
}

; Function Attrs: nounwind uwtable
define dso_local i32 @finalize_hashfile(ptr noundef %0, ptr noundef %1, i32 noundef %2, i32 noundef %3) #0 {
  %5 = alloca ptr, align 8
  %6 = alloca ptr, align 8
  %7 = alloca i32, align 4
  %8 = alloca i32, align 4
  %9 = alloca i32, align 4
  %10 = alloca i8, align 1
  %11 = alloca i32, align 4
  store ptr %0, ptr %5, align 8, !tbaa !4
  store ptr %1, ptr %6, align 8, !tbaa !30
  store i32 %2, ptr %7, align 4, !tbaa !16
  store i32 %3, ptr %8, align 4, !tbaa !16
  call void @llvm.lifetime.start.p0(i64 4, ptr %9) #10
  %12 = load ptr, ptr %5, align 8, !tbaa !4
  call void @hashflush(ptr noundef %12)
  %13 = load ptr, ptr %5, align 8, !tbaa !4
  %14 = getelementptr inbounds nuw %struct.hashfile, ptr %13, i32 0, i32 13
  %15 = load i32, ptr %14, align 8, !tbaa !17
  %16 = icmp ne i32 %15, 0
  br i1 %16, label %17, label %24

17:                                               ; preds = %4
  %18 = load ptr, ptr %5, align 8, !tbaa !4
  %19 = getelementptr inbounds nuw %struct.hashfile, ptr %18, i32 0, i32 10
  %20 = load ptr, ptr %19, align 8, !tbaa !22
  %21 = load ptr, ptr %5, align 8, !tbaa !4
  %22 = getelementptr inbounds nuw %struct.hashfile, ptr %21, i32 0, i32 12
  %23 = load ptr, ptr %22, align 8, !tbaa !18
  call void @hashclr(ptr noundef %20, ptr noundef %23)
  br label %35

24:                                               ; preds = %4
  %25 = load ptr, ptr %5, align 8, !tbaa !4
  %26 = getelementptr inbounds nuw %struct.hashfile, ptr %25, i32 0, i32 12
  %27 = load ptr, ptr %26, align 8, !tbaa !18
  %28 = getelementptr inbounds nuw %struct.git_hash_algo, ptr %27, i32 0, i32 8
  %29 = load ptr, ptr %28, align 8, !tbaa !31
  %30 = load ptr, ptr %5, align 8, !tbaa !4
  %31 = getelementptr inbounds nuw %struct.hashfile, ptr %30, i32 0, i32 10
  %32 = load ptr, ptr %31, align 8, !tbaa !22
  %33 = load ptr, ptr %5, align 8, !tbaa !4
  %34 = getelementptr inbounds nuw %struct.hashfile, ptr %33, i32 0, i32 3
  call void %29(ptr noundef %32, ptr noundef %34)
  br label %35

35:                                               ; preds = %24, %17
  %36 = load ptr, ptr %6, align 8, !tbaa !30
  %37 = icmp ne ptr %36, null
  br i1 %37, label %38, label %46

38:                                               ; preds = %35
  %39 = load ptr, ptr %6, align 8, !tbaa !30
  %40 = load ptr, ptr %5, align 8, !tbaa !4
  %41 = getelementptr inbounds nuw %struct.hashfile, ptr %40, i32 0, i32 10
  %42 = load ptr, ptr %41, align 8, !tbaa !22
  %43 = load ptr, ptr %5, align 8, !tbaa !4
  %44 = getelementptr inbounds nuw %struct.hashfile, ptr %43, i32 0, i32 12
  %45 = load ptr, ptr %44, align 8, !tbaa !18
  call void @hashcpy(ptr noundef %39, ptr noundef %42, ptr noundef %45)
  br label %46

46:                                               ; preds = %38, %35
  %47 = load i32, ptr %8, align 4, !tbaa !16
  %48 = and i32 %47, 4
  %49 = icmp ne i32 %48, 0
  br i1 %49, label %50, label %61

50:                                               ; preds = %46
  %51 = load ptr, ptr %5, align 8, !tbaa !4
  %52 = load ptr, ptr %5, align 8, !tbaa !4
  %53 = getelementptr inbounds nuw %struct.hashfile, ptr %52, i32 0, i32 10
  %54 = load ptr, ptr %53, align 8, !tbaa !22
  %55 = load ptr, ptr %5, align 8, !tbaa !4
  %56 = getelementptr inbounds nuw %struct.hashfile, ptr %55, i32 0, i32 12
  %57 = load ptr, ptr %56, align 8, !tbaa !18
  %58 = getelementptr inbounds nuw %struct.git_hash_algo, ptr %57, i32 0, i32 2
  %59 = load i64, ptr %58, align 8, !tbaa !32
  %60 = trunc i64 %59 to i32
  call void @flush(ptr noundef %51, ptr noundef %54, i32 noundef %60)
  br label %61

61:                                               ; preds = %50, %46
  %62 = load i32, ptr %8, align 4, !tbaa !16
  %63 = and i32 %62, 2
  %64 = icmp ne i32 %63, 0
  br i1 %64, label %65, label %73

65:                                               ; preds = %61
  %66 = load i32, ptr %7, align 4, !tbaa !16
  %67 = load ptr, ptr %5, align 8, !tbaa !4
  %68 = getelementptr inbounds nuw %struct.hashfile, ptr %67, i32 0, i32 0
  %69 = load i32, ptr %68, align 8, !tbaa !25
  %70 = load ptr, ptr %5, align 8, !tbaa !4
  %71 = getelementptr inbounds nuw %struct.hashfile, ptr %70, i32 0, i32 6
  %72 = load ptr, ptr %71, align 8, !tbaa !26
  call void @fsync_component_or_die(i32 noundef %66, i32 noundef %69, ptr noundef %72)
  br label %73

73:                                               ; preds = %65, %61
  %74 = load i32, ptr %8, align 4, !tbaa !16
  %75 = and i32 %74, 1
  %76 = icmp ne i32 %75, 0
  br i1 %76, label %77, label %88

77:                                               ; preds = %73
  %78 = load ptr, ptr %5, align 8, !tbaa !4
  %79 = getelementptr inbounds nuw %struct.hashfile, ptr %78, i32 0, i32 0
  %80 = load i32, ptr %79, align 8, !tbaa !25
  %81 = call i32 @close(i32 noundef %80)
  %82 = icmp ne i32 %81, 0
  br i1 %82, label %83, label %87

83:                                               ; preds = %77
  %84 = load ptr, ptr %5, align 8, !tbaa !4
  %85 = getelementptr inbounds nuw %struct.hashfile, ptr %84, i32 0, i32 6
  %86 = load ptr, ptr %85, align 8, !tbaa !26
  call void (ptr, ...) @die_errno(ptr noundef @.str, ptr noundef %86) #12
  unreachable

87:                                               ; preds = %77
  store i32 0, ptr %9, align 4, !tbaa !16
  br label %92

88:                                               ; preds = %73
  %89 = load ptr, ptr %5, align 8, !tbaa !4
  %90 = getelementptr inbounds nuw %struct.hashfile, ptr %89, i32 0, i32 0
  %91 = load i32, ptr %90, align 8, !tbaa !25
  store i32 %91, ptr %9, align 4, !tbaa !16
  br label %92

92:                                               ; preds = %88, %87
  %93 = load ptr, ptr %5, align 8, !tbaa !4
  %94 = getelementptr inbounds nuw %struct.hashfile, ptr %93, i32 0, i32 1
  %95 = load i32, ptr %94, align 4, !tbaa !24
  %96 = icmp sle i32 0, %95
  br i1 %96, label %97, label %127

97:                                               ; preds = %92
  call void @llvm.lifetime.start.p0(i64 1, ptr %10) #10
  call void @llvm.lifetime.start.p0(i64 4, ptr %11) #10
  %98 = load ptr, ptr %5, align 8, !tbaa !4
  %99 = getelementptr inbounds nuw %struct.hashfile, ptr %98, i32 0, i32 1
  %100 = load i32, ptr %99, align 4, !tbaa !24
  %101 = call i64 @read_in_full(i32 noundef %100, ptr noundef %10, i64 noundef 1)
  %102 = trunc i64 %101 to i32
  store i32 %102, ptr %11, align 4, !tbaa !16
  %103 = load i32, ptr %11, align 4, !tbaa !16
  %104 = icmp slt i32 %103, 0
  br i1 %104, label %105, label %109

105:                                              ; preds = %97
  %106 = load ptr, ptr %5, align 8, !tbaa !4
  %107 = getelementptr inbounds nuw %struct.hashfile, ptr %106, i32 0, i32 6
  %108 = load ptr, ptr %107, align 8, !tbaa !26
  call void (ptr, ...) @die_errno(ptr noundef @.str.1, ptr noundef %108) #12
  unreachable

109:                                              ; preds = %97
  %110 = load i32, ptr %11, align 4, !tbaa !16
  %111 = icmp ne i32 %110, 0
  br i1 %111, label %112, label %116

112:                                              ; preds = %109
  %113 = load ptr, ptr %5, align 8, !tbaa !4
  %114 = getelementptr inbounds nuw %struct.hashfile, ptr %113, i32 0, i32 6
  %115 = load ptr, ptr %114, align 8, !tbaa !26
  call void (ptr, ...) @die(ptr noundef @.str.2, ptr noundef %115) #12
  unreachable

116:                                              ; preds = %109
  %117 = load ptr, ptr %5, align 8, !tbaa !4
  %118 = getelementptr inbounds nuw %struct.hashfile, ptr %117, i32 0, i32 1
  %119 = load i32, ptr %118, align 4, !tbaa !24
  %120 = call i32 @close(i32 noundef %119)
  %121 = icmp ne i32 %120, 0
  br i1 %121, label %122, label %126

122:                                              ; preds = %116
  %123 = load ptr, ptr %5, align 8, !tbaa !4
  %124 = getelementptr inbounds nuw %struct.hashfile, ptr %123, i32 0, i32 6
  %125 = load ptr, ptr %124, align 8, !tbaa !26
  call void (ptr, ...) @die_errno(ptr noundef @.str, ptr noundef %125) #12
  unreachable

126:                                              ; preds = %116
  call void @llvm.lifetime.end.p0(i64 4, ptr %11) #10
  call void @llvm.lifetime.end.p0(i64 1, ptr %10) #10
  br label %127

127:                                              ; preds = %126, %92
  %128 = load ptr, ptr %5, align 8, !tbaa !4
  call void @free_hashfile(ptr noundef %128)
  %129 = load i32, ptr %9, align 4, !tbaa !16
  call void @llvm.lifetime.end.p0(i64 4, ptr %9) #10
  ret i32 %129
}