; Function Attrs: nounwind uwtable
define dso_local i32 @finalize_hashfile(ptr noundef %0, ptr noundef writeonly %1, i32 noundef %2, i32 noundef %3) local_unnamed_addr #0 {
  %5 = alloca i8, align 1
  %6 = getelementptr inbounds nuw i8, ptr %0, i64 8
  %7 = load i32, ptr %6, align 8, !tbaa !4
  %.not.i = icmp eq i32 %7, 0
  br i1 %.not.i, label %hashflush.exit, label %8

8:                                                ; preds = %4
  %9 = getelementptr inbounds nuw i8, ptr %0, i64 2480
  %10 = load i32, ptr %9, align 8, !tbaa !14
  %.not10.i = icmp eq i32 %10, 0
  br i1 %.not10.i, label %11, label %20

11:                                               ; preds = %8
  %12 = getelementptr inbounds nuw i8, ptr %0, i64 2472
  %13 = load ptr, ptr %12, align 8, !tbaa !15
  %14 = getelementptr inbounds nuw i8, ptr %13, i64 56
  %15 = load ptr, ptr %14, align 8, !tbaa !16
  %16 = getelementptr inbounds nuw i8, ptr %0, i64 16
  %17 = getelementptr inbounds nuw i8, ptr %0, i64 2456
  %18 = load ptr, ptr %17, align 8, !tbaa !19
  %19 = zext i32 %7 to i64
  tail call void %15(ptr noundef nonnull %16, ptr noundef %18, i64 noundef %19) #13
  br label %20

20:                                               ; preds = %11, %8
  %21 = getelementptr inbounds nuw i8, ptr %0, i64 2456
  %22 = load ptr, ptr %21, align 8, !tbaa !19
  tail call fastcc void @flush(ptr noundef nonnull %0, ptr noundef %22, i32 noundef %7)
  store i32 0, ptr %6, align 8, !tbaa !4
  br label %hashflush.exit

hashflush.exit:                                   ; preds = %4, %20
  %23 = getelementptr inbounds nuw i8, ptr %0, i64 2480
  %24 = load i32, ptr %23, align 8, !tbaa !14
  %.not = icmp eq i32 %24, 0
  br i1 %.not, label %31, label %25

25:                                               ; preds = %hashflush.exit
  %26 = getelementptr inbounds nuw i8, ptr %0, i64 2456
  %27 = load ptr, ptr %26, align 8, !tbaa !19
  %28 = getelementptr inbounds nuw i8, ptr %0, i64 2472
  %29 = load ptr, ptr %28, align 8, !tbaa !15
  %30 = getelementptr i8, ptr %29, i64 16
  %.val = load i64, ptr %30, align 8, !tbaa !27
  tail call void @llvm.memset.p0.i64(ptr align 1 %27, i8 0, i64 %.val, i1 false)
  br label %39

31:                                               ; preds = %hashflush.exit
  %32 = getelementptr inbounds nuw i8, ptr %0, i64 2472
  %33 = load ptr, ptr %32, align 8, !tbaa !15
  %34 = getelementptr inbounds nuw i8, ptr %33, i64 64
  %35 = load ptr, ptr %34, align 8, !tbaa !28
  %36 = getelementptr inbounds nuw i8, ptr %0, i64 2456
  %37 = load ptr, ptr %36, align 8, !tbaa !19
  %38 = getelementptr inbounds nuw i8, ptr %0, i64 16
  tail call void %35(ptr noundef %37, ptr noundef nonnull %38) #13
  br label %39

39:                                               ; preds = %31, %25
  %.not34 = icmp eq ptr %1, null
  br i1 %.not34, label %46, label %40

40:                                               ; preds = %39
  %41 = getelementptr inbounds nuw i8, ptr %0, i64 2456
  %42 = load ptr, ptr %41, align 8, !tbaa !19
  %43 = getelementptr inbounds nuw i8, ptr %0, i64 2472
  %44 = load ptr, ptr %43, align 8, !tbaa !15
  %45 = getelementptr i8, ptr %44, i64 16
  %.val41 = load i64, ptr %45, align 8, !tbaa !27
  tail call void @llvm.memcpy.p0.p0.i64(ptr nonnull align 1 %1, ptr readonly align 1 %42, i64 %.val41, i1 false)
  br label %46

46:                                               ; preds = %40, %39
  %47 = and i32 %3, 4
  %.not35 = icmp eq i32 %47, 0
  br i1 %.not35, label %56, label %48

48:                                               ; preds = %46
  %49 = getelementptr inbounds nuw i8, ptr %0, i64 2456
  %50 = load ptr, ptr %49, align 8, !tbaa !19
  %51 = getelementptr inbounds nuw i8, ptr %0, i64 2472
  %52 = load ptr, ptr %51, align 8, !tbaa !15
  %53 = getelementptr inbounds nuw i8, ptr %52, i64 16
  %54 = load i64, ptr %53, align 8, !tbaa !27
  %55 = trunc i64 %54 to i32
  tail call fastcc void @flush(ptr noundef nonnull %0, ptr noundef %50, i32 noundef %55)
  br label %56

56:                                               ; preds = %48, %46
  %57 = and i32 %3, 2
  %.not36 = icmp eq i32 %57, 0
  br i1 %.not36, label %62, label %58

58:                                               ; preds = %56
  %59 = load i32, ptr %0, align 8, !tbaa !23
  %60 = getelementptr inbounds nuw i8, ptr %0, i64 2432
  %61 = load ptr, ptr %60, align 8, !tbaa !22
  tail call void @fsync_component_or_die(i32 noundef %2, i32 noundef %59, ptr noundef %61) #13
  br label %62

62:                                               ; preds = %58, %56
  %63 = and i32 %3, 1
  %.not37 = icmp eq i32 %63, 0
  %64 = load i32, ptr %0, align 8, !tbaa !23
  br i1 %.not37, label %70, label %65

65:                                               ; preds = %62
  %66 = tail call i32 @close(i32 noundef %64) #13
  %.not38 = icmp eq i32 %66, 0
  br i1 %.not38, label %70, label %67

67:                                               ; preds = %65
  %68 = getelementptr inbounds nuw i8, ptr %0, i64 2432
  %69 = load ptr, ptr %68, align 8, !tbaa !22
  tail call void (ptr, ...) @die_errno(ptr noundef nonnull @.str, ptr noundef %69) #14
  unreachable

70:                                               ; preds = %62, %65
  %.0 = phi i32 [ 0, %65 ], [ %64, %62 ]
  %71 = getelementptr inbounds nuw i8, ptr %0, i64 4
  %72 = load i32, ptr %71, align 4, !tbaa !20
  %73 = icmp sgt i32 %72, -1
  br i1 %73, label %74, label %92

74:                                               ; preds = %70
  call void @llvm.lifetime.start.p0(i64 1, ptr nonnull %5) #13
  %75 = call i64 @read_in_full(i32 noundef %72, ptr noundef nonnull %5, i64 noundef 1) #13
  %76 = trunc i64 %75 to i32
  %77 = icmp slt i32 %76, 0
  br i1 %77, label %78, label %81

78:                                               ; preds = %74
  %79 = getelementptr inbounds nuw i8, ptr %0, i64 2432
  %80 = load ptr, ptr %79, align 8, !tbaa !22
  call void (ptr, ...) @die_errno(ptr noundef nonnull @.str.1, ptr noundef %80) #14
  unreachable

81:                                               ; preds = %74
  %.not39 = icmp eq i32 %76, 0
  br i1 %.not39, label %85, label %82

82:                                               ; preds = %81
  %83 = getelementptr inbounds nuw i8, ptr %0, i64 2432
  %84 = load ptr, ptr %83, align 8, !tbaa !22
  call void (ptr, ...) @die(ptr noundef nonnull @.str.2, ptr noundef %84) #14
  unreachable

85:                                               ; preds = %81
  %86 = load i32, ptr %71, align 4, !tbaa !20
  %87 = call i32 @close(i32 noundef %86) #13
  %.not40 = icmp eq i32 %87, 0
  br i1 %.not40, label %91, label %88

88:                                               ; preds = %85
  %89 = getelementptr inbounds nuw i8, ptr %0, i64 2432
  %90 = load ptr, ptr %89, align 8, !tbaa !22
  call void (ptr, ...) @die_errno(ptr noundef nonnull @.str, ptr noundef %90) #14
  unreachable

91:                                               ; preds = %85
  call void @llvm.lifetime.end.p0(i64 1, ptr nonnull %5) #13
  br label %92

92:                                               ; preds = %91, %70
  %93 = getelementptr inbounds nuw i8, ptr %0, i64 2456
  %94 = load ptr, ptr %93, align 8, !tbaa !19
  call void @free(ptr noundef %94) #13
  %95 = getelementptr inbounds nuw i8, ptr %0, i64 2464
  %96 = load ptr, ptr %95, align 8, !tbaa !21
  call void @free(ptr noundef %96) #13
  call void @free(ptr noundef nonnull %0) #13
  ret i32 %.0
}